target datalayout = "e-m:e-p270:32:32-p271:32:32-p272:64:64-i64:64-i128:128-f80:128-n8:16:32:64-S128"
target triple = "x86_64-pc-linux-gnu"

@nullprov = internal global ptr null, align 8

; Function Attrs: nounwind uwtable
define internal i32 @test_set_get_raw_keys(i32 noundef %0) #0 {
  %2 = alloca i32, align 4
  store i32 %0, ptr %2, align 4, !tbaa !9
  %3 = load ptr, ptr @nullprov, align 8, !tbaa !13
  %4 = icmp ne ptr %3, null
  br i1 %4, label %9, label %5

5:                                                ; preds = %1
  %6 = load i32, ptr %2, align 4, !tbaa !9
  %7 = call i32 @test_set_get_raw_keys_int(i32 noundef %6, i32 noundef 0, i32 noundef 0)
  %8 = icmp ne i32 %7, 0
  br i1 %8, label %9, label %24

9:                                                ; preds = %5, %1
  %10 = load i32, ptr %2, align 4, !tbaa !9
  %11 = call i32 @test_set_get_raw_keys_int(i32 noundef %10, i32 noundef 0, i32 noundef 1)
  %12 = icmp ne i32 %11, 0
  br i1 %12, label %13, label %24

13:                                               ; preds = %9
  %14 = load ptr, ptr @nullprov, align 8, !tbaa !13
  %15 = icmp ne ptr %14, null
  br i1 %15, label %20, label %16

16:                                               ; preds = %13
  %17 = load i32, ptr %2, align 4, !tbaa !9
  %18 = call i32 @test_set_get_raw_keys_int(i32 noundef %17, i32 noundef 1, i32 noundef 0)
  %19 = icmp ne i32 %18, 0
  br i1 %19, label %20, label %24

20:                                               ; preds = %16, %13
  %21 = load i32, ptr %2, align 4, !tbaa !9
  %22 = call i32 @test_set_get_raw_keys_int(i32 noundef %21, i32 noundef 1, i32 noundef 1)
  %23 = icmp ne i32 %22, 0
  br label %24

24:                                               ; preds = %20, %16, %9, %5
  %25 = phi i1 [ false, %16 ], [ false, %9 ], [ false, %5 ], [ %23, %20 ]
  %26 = zext i1 %25 to i32
  ret i32 %26
}