; Function Attrs: nounwind uwtable
define internal range(i32 0, 2) i32 @test_set_get_raw_keys(i32 noundef %0) #1 {
  %2 = load ptr, ptr @nullprov, align 8, !tbaa !11
  %.not = icmp eq ptr %2, null
  br i1 %.not, label %3, label %5

3:                                                ; preds = %1
  %4 = tail call fastcc i32 @test_set_get_raw_keys_int(i32 noundef %0, i32 noundef 0, i32 noundef 0)
  %.not4 = icmp eq i32 %4, 0
  br i1 %.not4, label %13, label %5

5:                                                ; preds = %3, %1
  %6 = tail call fastcc i32 @test_set_get_raw_keys_int(i32 noundef %0, i32 noundef 0, i32 noundef 1)
  %.not5 = icmp eq i32 %6, 0
  br i1 %.not5, label %13, label %7

7:                                                ; preds = %5
  %8 = load ptr, ptr @nullprov, align 8, !tbaa !11
  %.not6 = icmp eq ptr %8, null
  br i1 %.not6, label %9, label %11

9:                                                ; preds = %7
  %10 = tail call fastcc i32 @test_set_get_raw_keys_int(i32 noundef %0, i32 noundef 1, i32 noundef 0)
  %.not7 = icmp eq i32 %10, 0
  br i1 %.not7, label %13, label %11

11:                                               ; preds = %9, %7
  %12 = tail call fastcc i32 @test_set_get_raw_keys_int(i32 noundef %0, i32 noundef 1, i32 noundef 1)
  br label %13

13:                                               ; preds = %11, %9, %5, %3
  %14 = phi i32 [ 0, %9 ], [ 0, %5 ], [ 0, %3 ], [ %12, %11 ]
  ret i32 %14
}